target datalayout = "e-m:e-p270:32:32-p271:32:32-p272:64:64-i64:64-i128:128-f80:128-n8:16:32:64-S128"
target triple = "x86_64-pc-linux-gnu"

%class.ABstats = type { [8 x %"class.std::__cxx11::basic_string"], %struct.ABtracker, %struct.ABtracker, [2 x %struct.ABtracker], [8 x %struct.ABtracker] }
%"class.std::__cxx11::basic_string" = type { %"struct.std::__cxx11::basic_string<char>::_Alloc_hider", i64, %union.anon }
%"struct.std::__cxx11::basic_string<char>::_Alloc_hider" = type { ptr }
%union.anon = type { i64, [8 x i8] }
%struct.ABtracker = type { [49 x i32], i32, i32, i32, i32 }

; Function Attrs: mustprogress nounwind uwtable
define void @_ZN7ABstats5ResetEv(ptr noundef nonnull align 8 dereferenceable(2800) %0) #5 align 2 {
  %2 = alloca ptr, align 8
  %3 = alloca i32, align 4
  %4 = alloca i32, align 4
  %5 = alloca i32, align 4
  %6 = alloca i32, align 4
  %7 = alloca i32, align 4
  store ptr %0, ptr %2, align 8
  %8 = load ptr, ptr %2, align 8
  store i32 0, ptr %3, align 4
  br label %9

9:                                                ; preds = %18, %1
  %10 = load i32, ptr %3, align 4
  %11 = icmp slt i32 %10, 49
  br i1 %11, label %12, label %21

12:                                               ; preds = %9
  %13 = getelementptr inbounds nuw %class.ABstats, ptr %8, i32 0, i32 1
  %14 = getelementptr inbounds nuw %struct.ABtracker, ptr %13, i32 0, i32 0
  %15 = load i32, ptr %3, align 4
  %16 = sext i32 %15 to i64
  %17 = getelementptr inbounds [49 x i32], ptr %14, i64 0, i64 %16
  store i32 0, ptr %17, align 4
  br label %18

18:                                               ; preds = %12
  %19 = load i32, ptr %3, align 4
  %20 = add nsw i32 %19, 1
  store i32 %20, ptr %3, align 4
  br label %9, !llvm.loop !4

21:                                               ; preds = %9
  %22 = getelementptr inbounds nuw %class.ABstats, ptr %8, i32 0, i32 1
  %23 = getelementptr inbounds nuw %struct.ABtracker, ptr %22, i32 0, i32 1
  store i32 0, ptr %23, align 4
  %24 = getelementptr inbounds nuw %class.ABstats, ptr %8, i32 0, i32 1
  %25 = getelementptr inbounds nuw %struct.ABtracker, ptr %24, i32 0, i32 2
  store i32 0, ptr %25, align 8
  store i32 0, ptr %4, align 4
  br label %26

26:                                               ; preds = %56, %21
  %27 = load i32, ptr %4, align 4
  %28 = icmp slt i32 %27, 2
  br i1 %28, label %29, label %59

29:                                               ; preds = %26
  store i32 0, ptr %5, align 4
  br label %30

30:                                               ; preds = %42, %29
  %31 = load i32, ptr %5, align 4
  %32 = icmp slt i32 %31, 49
  br i1 %32, label %33, label %45

33:                                               ; preds = %30
  %34 = getelementptr inbounds nuw %class.ABstats, ptr %8, i32 0, i32 3
  %35 = load i32, ptr %4, align 4
  %36 = sext i32 %35 to i64
  %37 = getelementptr inbounds [2 x %struct.ABtracker], ptr %34, i64 0, i64 %36
  %38 = getelementptr inbounds nuw %struct.ABtracker, ptr %37, i32 0, i32 0
  %39 = load i32, ptr %5, align 4
  %40 = sext i32 %39 to i64
  %41 = getelementptr inbounds [49 x i32], ptr %38, i64 0, i64 %40
  store i32 0, ptr %41, align 4
  br label %42

42:                                               ; preds = %33
  %43 = load i32, ptr %5, align 4
  %44 = add nsw i32 %43, 1
  store i32 %44, ptr %5, align 4
  br label %30, !llvm.loop !6

45:                                               ; preds = %30
  %46 = getelementptr inbounds nuw %class.ABstats, ptr %8, i32 0, i32 3
  %47 = load i32, ptr %4, align 4
  %48 = sext i32 %47 to i64
  %49 = getelementptr inbounds [2 x %struct.ABtracker], ptr %46, i64 0, i64 %48
  %50 = getelementptr inbounds nuw %struct.ABtracker, ptr %49, i32 0, i32 1
  store i32 0, ptr %50, align 4
  %51 = getelementptr inbounds nuw %class.ABstats, ptr %8, i32 0, i32 3
  %52 = load i32, ptr %4, align 4
  %53 = sext i32 %52 to i64
  %54 = getelementptr inbounds [2 x %struct.ABtracker], ptr %51, i64 0, i64 %53
  %55 = getelementptr inbounds nuw %struct.ABtracker, ptr %54, i32 0, i32 2
  store i32 0, ptr %55, align 4
  br label %56

56:                                               ; preds = %45
  %57 = load i32, ptr %4, align 4
  %58 = add nsw i32 %57, 1
  store i32 %58, ptr %4, align 4
  br label %26, !llvm.loop !7

59:                                               ; preds = %26
  store i32 0, ptr %6, align 4
  br label %60

60:                                               ; preds = %90, %59
  %61 = load i32, ptr %6, align 4
  %62 = icmp slt i32 %61, 8
  br i1 %62, label %63, label %93

63:                                               ; preds = %60
  store i32 0, ptr %7, align 4
  br label %64

64:                                               ; preds = %76, %63
  %65 = load i32, ptr %7, align 4
  %66 = icmp slt i32 %65, 49
  br i1 %66, label %67, label %79

67:                                               ; preds = %64
  %68 = getelementptr inbounds nuw %class.ABstats, ptr %8, i32 0, i32 4
  %69 = load i32, ptr %6, align 4
  %70 = sext i32 %69 to i64
  %71 = getelementptr inbounds [8 x %struct.ABtracker], ptr %68, i64 0, i64 %70
  %72 = getelementptr inbounds nuw %struct.ABtracker, ptr %71, i32 0, i32 0
  %73 = load i32, ptr %7, align 4
  %74 = sext i32 %73 to i64
  %75 = getelementptr inbounds [49 x i32], ptr %72, i64 0, i64 %74
  store i32 0, ptr %75, align 4
  br label %76

76:                                               ; preds = %67
  %77 = load i32, ptr %7, align 4
  %78 = add nsw i32 %77, 1
  store i32 %78, ptr %7, align 4
  br label %64, !llvm.loop !8

79:                                               ; preds = %64
  %80 = getelementptr inbounds nuw %class.ABstats, ptr %8, i32 0, i32 4
  %81 = load i32, ptr %6, align 4
  %82 = sext i32 %81 to i64
  %83 = getelementptr inbounds [8 x %struct.ABtracker], ptr %80, i64 0, i64 %82
  %84 = getelementptr inbounds nuw %struct.ABtracker, ptr %83, i32 0, i32 1
  store i32 0, ptr %84, align 4
  %85 = getelementptr inbounds nuw %class.ABstats, ptr %8, i32 0, i32 4
  %86 = load i32, ptr %6, align 4
  %87 = sext i32 %86 to i64
  %88 = getelementptr inbounds [8 x %struct.ABtracker], ptr %85, i64 0, i64 %87
  %89 = getelementptr inbounds nuw %struct.ABtracker, ptr %88, i32 0, i32 2
  store i32 0, ptr %89, align 4
  br label %90

90:                                               ; preds = %79
  %91 = load i32, ptr %6, align 4
  %92 = add nsw i32 %91, 1
  store i32 %92, ptr %6, align 4
  br label %60, !llvm.loop !9

93:                                               ; preds = %60
  ret void
}