; Function Attrs: mustprogress nofree norecurse nosync nounwind memory(argmem: write) uwtable
define void @_ZN7ABstats5ResetEv(ptr nocapture noundef nonnull writeonly align 8 dereferenceable(2800) %0) local_unnamed_addr #4 align 2 {
.preheader24:
  %1 = getelementptr inbounds nuw i8, ptr %0, i64 256
  tail call void @llvm.memset.p0.i64(ptr noundef nonnull align 8 dereferenceable(204) %1, i8 0, i64 204, i1 false)
  %invariant.gep = getelementptr inbounds i8, ptr %0, i64 680
  tail call void @llvm.memset.p0.i64(ptr noundef nonnull align 8 dereferenceable(196) %invariant.gep, i8 0, i64 196, i1 false)
  %2 = getelementptr inbounds i8, ptr %0, i64 876
  store i32 0, ptr %2, align 4
  %3 = getelementptr inbounds i8, ptr %0, i64 880
  store i32 0, ptr %3, align 8
  %gep.c = getelementptr inbounds i8, ptr %0, i64 892
  tail call void @llvm.memset.p0.i64(ptr noundef nonnull align 4 dereferenceable(196) %gep.c, i8 0, i64 196, i1 false)
  %4 = getelementptr inbounds i8, ptr %0, i64 1088
  store i32 0, ptr %4, align 8
  %5 = getelementptr inbounds i8, ptr %0, i64 1092
  store i32 0, ptr %5, align 4
  %6 = getelementptr inbounds nuw i8, ptr %0, i64 1104
  %invariant.gep38 = getelementptr inbounds i8, ptr %0, i64 1104
  br label %.preheader

.preheader:                                       ; preds = %.preheader24, %.preheader
  %indvar33 = phi i64 [ 0, %.preheader24 ], [ %indvar.next34, %.preheader ]
  %7 = mul nuw nsw i64 %indvar33, 212
  %gep39 = getelementptr i8, ptr %invariant.gep38, i64 %7
  tail call void @llvm.memset.p0.i64(ptr noundef nonnull align 4 dereferenceable(196) %gep39, i8 0, i64 196, i1 false)
  %8 = getelementptr inbounds [8 x %struct.ABtracker], ptr %6, i64 0, i64 %indvar33
  %9 = getelementptr inbounds nuw i8, ptr %8, i64 196
  store i32 0, ptr %9, align 4
  %10 = getelementptr inbounds nuw i8, ptr %8, i64 200
  store i32 0, ptr %10, align 4
  %indvar.next34 = add nuw nsw i64 %indvar33, 1
  %exitcond.not = icmp eq i64 %indvar.next34, 8
  br i1 %exitcond.not, label %11, label %.preheader, !llvm.loop !4

11:                                               ; preds = %.preheader
  ret void
}